(dp0
Vengine
p1
Vxelatex
p2
sVpackages
p3
c__builtin__
set
p4
((lp5
Vhyperref
p6
aVpolyglossia
p7
aVamsmath
p8
aVfullpage
p9
aVplaceins
p10
aVgraphicx
p11
atp12
Rp13
sVfiles_with_guttermarks
p14
g4
((lp15
S'MunanXu_project1_writeup.tex'
p16
aV/Users/munanxu/Dropbox/JHUF15/ASP/proj1/./MunanXu_project1_writeup.tex
p17
aV/Users/munanxu/Dropbox/JHUF15/ASP/proj1/MunanXu_project1_writeup.tex
p18
atp19
Rp20
sVsynctex
p21
I01
s.